target datalayout = "e-m:e-p270:32:32-p271:32:32-p272:64:64-i64:64-i128:128-f80:128-n8:16:32:64-S128"
target triple = "x86_64-pc-linux-gnu"

%"class.std::__shared_count" = type { ptr }
%"class.rocksdb::MutexLock" = type { ptr }
%"class.rocksdb::test::SleepingBackgroundTask" = type <{ %"class.rocksdb::port::Mutex", %"class.rocksdb::port::CondVar", i8, i8, i8, [5 x i8] }>
%"class.rocksdb::port::Mutex" = type { %union.pthread_mutex_t }
%union.pthread_mutex_t = type { %struct.__pthread_mutex_s }
%struct.__pthread_mutex_s = type { i32, i32, i32, i32, i32, i16, i16, %struct.__pthread_internal_list }
%struct.__pthread_internal_list = type { ptr, ptr }
%"class.rocksdb::port::CondVar" = type { %union.pthread_cond_t, ptr }
%union.pthread_cond_t = type { %struct.__pthread_cond_s }
%struct.__pthread_cond_s = type { %union.__atomic_wide_counter, %union.__atomic_wide_counter, [2 x i32], [2 x i32], i32, i32, [2 x i32] }
%union.__atomic_wide_counter = type { i64 }
%"class.std::__shared_ptr.40" = type { ptr, %"class.std::__shared_count" }

; Function Attrs: mustprogress nounwind uwtable
define linkonce_odr noundef ptr @_ZNKSt12__shared_ptrIN7rocksdb11SystemClockELN9__gnu_cxx12_Lock_policyE2EE3getEv(ptr noundef nonnull align 8 dereferenceable(16) %0) #3 comdat align 2 {
  %2 = alloca ptr, align 8
  store ptr %0, ptr %2, align 8, !tbaa !1355
  %3 = load ptr, ptr %2, align 8
  %4 = getelementptr inbounds nuw %"class.std::__shared_ptr.40", ptr %3, i32 0, i32 0
  %5 = load ptr, ptr %4, align 8, !tbaa !1357
  ret ptr %5
}

; Function Attrs: mustprogress nounwind uwtable
define linkonce_odr noundef ptr @_ZNKSt19__shared_ptr_accessIN7rocksdb11SystemClockELN9__gnu_cxx12_Lock_policyE2ELb0ELb0EE6_M_getEv(ptr noundef nonnull align 1 dereferenceable(1) %0) #3 comdat align 2 {
  %2 = alloca ptr, align 8
  store ptr %0, ptr %2, align 8, !tbaa !202
  %3 = load ptr, ptr %2, align 8
  %4 = call noundef ptr @_ZNKSt12__shared_ptrIN7rocksdb11SystemClockELN9__gnu_cxx12_Lock_policyE2EE3getEv(ptr noundef nonnull align 8 dereferenceable(16) %3) #4
  ret ptr %4
}

; Function Attrs: mustprogress nounwind uwtable
define linkonce_odr void @_ZN7rocksdb9MutexLockD2Ev(ptr noundef nonnull align 8 dereferenceable(8) %0) unnamed_addr #3 comdat align 2 personality ptr @__gxx_personality_v0 {
  %2 = alloca ptr, align 8
  store ptr %0, ptr %2, align 8, !tbaa !204
  %3 = load ptr, ptr %2, align 8
  %4 = getelementptr inbounds nuw %"class.rocksdb::MutexLock", ptr %3, i32 0, i32 0
  %5 = load ptr, ptr %4, align 8, !tbaa !207
  invoke void @_ZN7rocksdb4port5Mutex6UnlockEv(ptr noundef nonnull align 8 dereferenceable(40) %5)
          to label %6 unwind label %7

6:                                                ; preds = %1
  ret void

7:                                                ; preds = %1
  %8 = landingpad { ptr, i32 }
          catch ptr null
  %9 = extractvalue { ptr, i32 } %8, 0
  call void @__clang_call_terminate(ptr %9) #24
  unreachable
}

; Function Attrs: mustprogress uwtable
define linkonce_odr void @_ZN7rocksdb9MutexLockC2EPNS_4port5MutexE(ptr noundef nonnull align 8 dereferenceable(8) %0, ptr noundef %1) unnamed_addr #5 comdat align 2 {
  %3 = alloca ptr, align 8
  %4 = alloca ptr, align 8
  store ptr %0, ptr %3, align 8, !tbaa !204
  store ptr %1, ptr %4, align 8, !tbaa !206
  %5 = load ptr, ptr %3, align 8
  %6 = getelementptr inbounds nuw %"class.rocksdb::MutexLock", ptr %5, i32 0, i32 0
  %7 = load ptr, ptr %4, align 8, !tbaa !206
  store ptr %7, ptr %6, align 8, !tbaa !207
  %8 = getelementptr inbounds nuw %"class.rocksdb::MutexLock", ptr %5, i32 0, i32 0
  %9 = load ptr, ptr %8, align 8, !tbaa !207
  call void @_ZN7rocksdb4port5Mutex4LockEv(ptr noundef nonnull align 8 dereferenceable(40) %9)
  ret void
}

; Function Attrs: mustprogress nounwind uwtable
define linkonce_odr noundef ptr @_ZNKSt19__shared_ptr_accessIN7rocksdb11SystemClockELN9__gnu_cxx12_Lock_policyE2ELb0ELb0EEptEv(ptr noundef nonnull align 1 dereferenceable(1) %0) #3 comdat align 2 {
  %2 = alloca ptr, align 8
  store ptr %0, ptr %2, align 8, !tbaa !202
  %3 = load ptr, ptr %2, align 8
  %4 = call noundef ptr @_ZNKSt19__shared_ptr_accessIN7rocksdb11SystemClockELN9__gnu_cxx12_Lock_policyE2ELb0ELb0EE6_M_getEv(ptr noundef nonnull align 1 dereferenceable(1) %3) #4
  ret ptr %4
}

; Function Attrs: mustprogress uwtable
define noundef zeroext i1 @_ZN7rocksdb4test22SleepingBackgroundTask22TimedWaitUntilSleepingEm(ptr noundef nonnull align 8 dereferenceable(99) %0, i64 noundef %1) #5 align 2 personality ptr @__gxx_personality_v0 {
  %3 = alloca i1, align 1
  %4 = alloca ptr, align 8
  %5 = alloca i64, align 8
  %6 = alloca i64, align 8
  %7 = alloca %"class.rocksdb::MutexLock", align 8
  %8 = alloca ptr, align 8
  %9 = alloca i32, align 4
  %10 = alloca i32, align 4
  store ptr %0, ptr %4, align 8, !tbaa !193
  store i64 %1, ptr %5, align 8, !tbaa !4
  %11 = load ptr, ptr %4, align 8
  call void @llvm.lifetime.start.p0(i64 8, ptr %6) #4
  %12 = call noundef nonnull align 8 dereferenceable(16) ptr @_ZN7rocksdb11SystemClock7DefaultEv()
  %13 = call noundef ptr @_ZNKSt19__shared_ptr_accessIN7rocksdb11SystemClockELN9__gnu_cxx12_Lock_policyE2ELb0ELb0EEptEv(ptr noundef nonnull align 1 dereferenceable(1) %12) #4
  %14 = load ptr, ptr %13, align 8, !tbaa !178
  %15 = getelementptr inbounds ptr, ptr %14, i64 19
  %16 = load ptr, ptr %15, align 8
  %17 = call noundef i64 %16(ptr noundef nonnull align 8 dereferenceable(32) %13)
  %18 = load i64, ptr %5, align 8, !tbaa !4
  %19 = add i64 %17, %18
  store i64 %19, ptr %6, align 8, !tbaa !4
  call void @llvm.lifetime.start.p0(i64 8, ptr %7) #4
  %20 = getelementptr inbounds nuw %"class.rocksdb::test::SleepingBackgroundTask", ptr %11, i32 0, i32 0
  call void @_ZN7rocksdb9MutexLockC2EPNS_4port5MutexE(ptr noundef nonnull align 8 dereferenceable(8) %7, ptr noundef %20)
  br label %21

21:                                               ; preds = %42, %2
  %22 = getelementptr inbounds nuw %"class.rocksdb::test::SleepingBackgroundTask", ptr %11, i32 0, i32 4
  %23 = load i8, ptr %22, align 2, !tbaa !195, !range !191, !noundef !192
  %24 = trunc i8 %23 to i1
  br i1 %24, label %25, label %30

25:                                               ; preds = %21
  %26 = getelementptr inbounds nuw %"class.rocksdb::test::SleepingBackgroundTask", ptr %11, i32 0, i32 2
  %27 = load i8, ptr %26, align 8, !tbaa !200, !range !191, !noundef !192
  %28 = trunc i8 %27 to i1
  %29 = xor i1 %28, true
  br label %30

30:                                               ; preds = %25, %21
  %31 = phi i1 [ true, %21 ], [ %29, %25 ]
  br i1 %31, label %32, label %43

32:                                               ; preds = %30
  %33 = getelementptr inbounds nuw %"class.rocksdb::test::SleepingBackgroundTask", ptr %11, i32 0, i32 1
  %34 = load i64, ptr %6, align 8, !tbaa !4
  %35 = invoke noundef zeroext i1 @_ZN7rocksdb4port7CondVar9TimedWaitEm(ptr noundef nonnull align 8 dereferenceable(56) %33, i64 noundef %34)
          to label %36 unwind label %38

36:                                               ; preds = %32
  br i1 %35, label %37, label %42

37:                                               ; preds = %36
  store i1 true, ptr %3, align 1
  store i32 1, ptr %10, align 4
  br label %44

38:                                               ; preds = %32
  %39 = landingpad { ptr, i32 }
          cleanup
  %40 = extractvalue { ptr, i32 } %39, 0
  store ptr %40, ptr %8, align 8
  %41 = extractvalue { ptr, i32 } %39, 1
  store i32 %41, ptr %9, align 4
  call void @_ZN7rocksdb9MutexLockD2Ev(ptr noundef nonnull align 8 dereferenceable(8) %7) #4
  call void @llvm.lifetime.end.p0(i64 8, ptr %7) #4
  call void @llvm.lifetime.end.p0(i64 8, ptr %6) #4
  br label %46

42:                                               ; preds = %36
  br label %21, !llvm.loop !201

43:                                               ; preds = %30
  store i1 false, ptr %3, align 1
  store i32 1, ptr %10, align 4
  br label %44

44:                                               ; preds = %43, %37
  call void @_ZN7rocksdb9MutexLockD2Ev(ptr noundef nonnull align 8 dereferenceable(8) %7) #4
  call void @llvm.lifetime.end.p0(i64 8, ptr %7) #4
  call void @llvm.lifetime.end.p0(i64 8, ptr %6) #4
  %45 = load i1, ptr %3, align 1
  ret i1 %45

46:                                               ; preds = %38
  %47 = load ptr, ptr %8, align 8
  %48 = load i32, ptr %9, align 4
  %49 = insertvalue { ptr, i32 } poison, ptr %47, 0
  %50 = insertvalue { ptr, i32 } %49, i32 %48, 1
  resume { ptr, i32 } %50
}