; Function Attrs: mustprogress uwtable
define noundef zeroext i1 @_ZN7rocksdb4test22SleepingBackgroundTask22TimedWaitUntilSleepingEm(ptr noundef nonnull align 8 dereferenceable(99) %0, i64 noundef %1) local_unnamed_addr #7 align 2 personality ptr @__gxx_personality_v0 {
  %3 = tail call noundef nonnull align 8 dereferenceable(16) ptr @_ZN7rocksdb11SystemClock7DefaultEv()
  %4 = load ptr, ptr %3, align 8, !tbaa !75
  %5 = load ptr, ptr %4, align 8, !tbaa !25
  %6 = getelementptr inbounds nuw i8, ptr %5, i64 152
  %7 = load ptr, ptr %6, align 8
  %8 = tail call noundef i64 %7(ptr noundef nonnull align 8 dereferenceable(32) %4)
  %9 = add i64 %8, %1
  tail call void @_ZN7rocksdb4port5Mutex4LockEv(ptr noundef nonnull align 8 dereferenceable(40) %0)
  %10 = getelementptr inbounds nuw i8, ptr %0, i64 98
  %11 = getelementptr inbounds nuw i8, ptr %0, i64 96
  %12 = getelementptr inbounds nuw i8, ptr %0, i64 40
  br label %13

13:                                               ; preds = %20, %2
  %14 = load i8, ptr %10, align 2, !tbaa !78, !range !84, !noundef !85
  %15 = trunc nuw i8 %14 to i1
  br i1 %15, label %16, label %.critedge

16:                                               ; preds = %13
  %17 = load i8, ptr %11, align 8, !tbaa !86, !range !84, !noundef !85
  %18 = trunc nuw i8 %17 to i1
  br i1 %18, label %26, label %.critedge

.critedge:                                        ; preds = %13, %16
  %19 = invoke noundef zeroext i1 @_ZN7rocksdb4port7CondVar9TimedWaitEm(ptr noundef nonnull align 8 dereferenceable(56) %12, i64 noundef %9)
          to label %20 unwind label %21

20:                                               ; preds = %.critedge
  br i1 %19, label %26, label %13, !llvm.loop !87

21:                                               ; preds = %.critedge
  %22 = landingpad { ptr, i32 }
          cleanup
  invoke void @_ZN7rocksdb4port5Mutex6UnlockEv(ptr noundef nonnull align 8 dereferenceable(40) %0)
          to label %_ZN7rocksdb9MutexLockD2Ev.exit unwind label %23

23:                                               ; preds = %21
  %24 = landingpad { ptr, i32 }
          catch ptr null
  %25 = extractvalue { ptr, i32 } %24, 0
  tail call void @__clang_call_terminate(ptr %25) #35
  unreachable

_ZN7rocksdb9MutexLockD2Ev.exit:                   ; preds = %21
  resume { ptr, i32 } %22

26:                                               ; preds = %16, %20
  %.0 = phi i1 [ true, %20 ], [ false, %16 ]
  invoke void @_ZN7rocksdb4port5Mutex6UnlockEv(ptr noundef nonnull align 8 dereferenceable(40) %0)
          to label %_ZN7rocksdb9MutexLockD2Ev.exit5 unwind label %27

27:                                               ; preds = %26
  %28 = landingpad { ptr, i32 }
          catch ptr null
  %29 = extractvalue { ptr, i32 } %28, 0
  tail call void @__clang_call_terminate(ptr %29) #35
  unreachable

_ZN7rocksdb9MutexLockD2Ev.exit5:                  ; preds = %26
  ret i1 %.0
}